Certificate:
    Data:
        Version: 3 (0x2)
        Serial Number: 13117827859643928489 (0xb60be2efe6cc8fa9)
    Signature Algorithm: sha256WithRSAEncryption
        Issuer: C=ID, ST=Jawa Timur, O=ITS, OU=Teknik Informatika, CN=TCA/emailAddress=tca@kij.com
        Validity
            Not Before: May  4 05:51:19 2015 GMT
            Not After : May  3 05:51:19 2018 GMT
        Subject: C=ID, ST=Jawa Timur, O=ITS, OU=Teknik Informatika, CN=TCA/emailAddress=tca@kij.com
        Subject Public Key Info:
            Public Key Algorithm: rsaEncryption
                Public-Key: (2048 bit)
                Modulus:
                    00:cf:2c:f4:19:28:e9:4d:c0:de:c4:38:b9:b2:b0:
                    41:b3:05:d5:a4:d8:1d:23:ea:fc:39:26:0a:a1:02:
                    16:b6:43:32:66:7c:74:c6:13:77:48:32:3a:fa:6f:
                    85:77:a1:d4:a4:8a:04:61:81:16:51:34:d7:b5:b5:
                    31:b6:c1:73:d8:de:ba:88:20:fc:d9:47:e6:24:52:
                    b8:b5:83:a8:a0:e8:7b:ce:5f:51:f6:42:5c:68:89:
                    ca:7f:2a:c1:d5:83:03:c9:87:d4:82:e9:3a:6d:54:
                    b9:c5:50:dd:7e:5d:b2:5f:2d:72:1e:1d:53:d1:ca:
                    91:01:ec:55:30:23:ca:67:1c:43:c7:b9:a2:c2:30:
                    57:a6:97:92:6d:68:ef:a3:bf:94:59:12:ce:83:0a:
                    b8:e9:21:71:d6:12:42:51:e6:0f:07:37:5b:97:a3:
                    da:80:03:71:c4:6b:dc:3c:e6:03:69:d1:0c:34:d6:
                    02:ff:47:f4:d0:8e:b5:33:0c:4b:11:49:de:66:ec:
                    0d:b5:f5:11:dd:46:d0:e4:b4:49:60:93:04:3e:7a:
                    e9:35:b5:f9:8b:a5:3e:6a:59:ac:f3:99:89:87:2b:
                    de:7d:00:99:37:78:83:05:d1:22:86:28:59:d3:c0:
                    5c:9d:34:c3:93:0e:6c:f8:ea:02:5b:94:02:29:d6:
                    f0:ab
                Exponent: 65537 (0x10001)
        X509v3 extensions:
            X509v3 Subject Key Identifier: 
                DF:27:57:5E:40:70:4B:88:39:22:5F:71:48:F6:CD:A7:A9:C9:8C:36
            X509v3 Authority Key Identifier: 
                keyid:DF:27:57:5E:40:70:4B:88:39:22:5F:71:48:F6:CD:A7:A9:C9:8C:36

            X509v3 Basic Constraints: 
                CA:TRUE
    Signature Algorithm: sha256WithRSAEncryption
         ad:76:b0:e9:f7:1e:c7:d0:d8:aa:64:8a:8a:b2:55:26:11:53:
         74:33:46:70:0f:37:0e:01:79:15:af:15:8f:e6:d4:4f:19:37:
         73:ca:84:84:73:37:f4:58:a6:dc:5c:64:cf:e4:7c:e7:32:e5:
         f3:1f:41:eb:b8:68:8a:7a:1a:4b:1f:97:05:cc:72:78:2f:19:
         d4:a7:9e:c6:50:44:35:df:30:f4:39:31:c0:85:58:4e:24:e9:
         7f:54:56:53:cd:ba:b2:fb:c0:3c:9a:30:04:db:07:49:50:d8:
         3e:45:85:c4:6d:62:fa:13:c5:ee:c2:6a:57:d0:b0:27:24:f9:
         d1:88:27:86:91:9d:bb:64:cc:4e:53:ad:04:8a:4a:04:f4:bf:
         68:2b:72:c9:fd:13:a3:64:a7:14:6d:9a:c2:b6:af:45:e7:ad:
         0d:85:e6:d9:64:07:78:21:47:b2:c8:93:36:f2:90:d0:f3:46:
         5c:ff:0f:79:7a:38:da:22:92:a6:32:b1:00:05:b1:58:8c:da:
         d7:79:57:7a:8c:79:5f:6d:77:6f:78:c6:9c:44:f9:c3:8b:56:
         39:ef:c8:c6:78:cd:8e:4c:51:98:ff:a3:a8:46:57:41:11:8c:
         e4:63:bd:6f:e8:b1:55:5e:dd:fc:1e:be:46:08:71:8b:47:d8:
         ab:8d:31:c8
-----BEGIN CERTIFICATE-----
MIIDwTCCAqmgAwIBAgIJALYL4u/mzI+pMA0GCSqGSIb3DQEBCwUAMHcxCzAJBgNV
BAYTAklEMRMwEQYDVQQIDApKYXdhIFRpbXVyMQwwCgYDVQQKDANJVFMxGzAZBgNV
BAsMElRla25payBJbmZvcm1hdGlrYTEMMAoGA1UEAwwDVENBMRowGAYJKoZIhvcN
AQkBFgt0Y2FAa2lqLmNvbTAeFw0xNTA1MDQwNTUxMTlaFw0xODA1MDMwNTUxMTla
MHcxCzAJBgNVBAYTAklEMRMwEQYDVQQIDApKYXdhIFRpbXVyMQwwCgYDVQQKDANJ
VFMxGzAZBgNVBAsMElRla25payBJbmZvcm1hdGlrYTEMMAoGA1UEAwwDVENBMRow
GAYJKoZIhvcNAQkBFgt0Y2FAa2lqLmNvbTCCASIwDQYJKoZIhvcNAQEBBQADggEP
ADCCAQoCggEBAM8s9Bko6U3A3sQ4ubKwQbMF1aTYHSPq/DkmCqECFrZDMmZ8dMYT
d0gyOvpvhXeh1KSKBGGBFlE017W1MbbBc9jeuogg/NlH5iRSuLWDqKDoe85fUfZC
XGiJyn8qwdWDA8mH1ILpOm1UucVQ3X5dsl8tch4dU9HKkQHsVTAjymccQ8e5osIw
V6aXkm1o76O/lFkSzoMKuOkhcdYSQlHmDwc3W5ej2oADccRr3DzmA2nRDDTWAv9H
9NCOtTMMSxFJ3mbsDbX1Ed1G0OS0SWCTBD566TW1+YulPmpZrPOZiYcr3n0AmTd4
gwXRIoYoWdPAXJ00w5MObPjqAluUAinW8KsCAwEAAaNQME4wHQYDVR0OBBYEFN8n
V15AcEuIOSJfcUj2zaepyYw2MB8GA1UdIwQYMBaAFN8nV15AcEuIOSJfcUj2zaep
yYw2MAwGA1UdEwQFMAMBAf8wDQYJKoZIhvcNAQELBQADggEBAK12sOn3HsfQ2Kpk
ioqyVSYRU3QzRnAPNw4BeRWvFY/m1E8ZN3PKhIRzN/RYptxcZM/kfOcy5fMfQeu4
aIp6GksflwXMcngvGdSnnsZQRDXfMPQ5McCFWE4k6X9UVlPNurL7wDyaMATbB0lQ
2D5FhcRtYvoTxe7CalfQsCck+dGIJ4aRnbtkzE5TrQSKSgT0v2grcsn9E6NkpxRt
msK2r0XnrQ2F5tlkB3ghR7LIkzbykNDzRlz/D3l6ONoikqYysQAFsViM2td5V3qM
eV9td294xpxE+cOLVjnvyMZ4zY5MUZj/o6hGV0ERjORjvW/osVVe3fwevkYIcYtH
2KuNMcg=
-----END CERTIFICATE-----
